target datalayout = "e-m:e-p270:32:32-p271:32:32-p272:64:64-i64:64-i128:128-f80:128-n8:16:32:64-S128"
target triple = "x86_64-pc-linux-gnu"

%"class.icu_77::UnicodeString" = type { %"class.icu_77::Replaceable", %"union.icu_77::UnicodeString::StackBufferOrFields" }
%"class.icu_77::Replaceable" = type { %"class.icu_77::UObject" }
%"class.icu_77::UObject" = type { ptr }
%"union.icu_77::UnicodeString::StackBufferOrFields" = type { %struct.anon.0, [32 x i8] }
%struct.anon.0 = type { i16, i32, i32, ptr }
%"class.icu_77::DateTimeMatcher" = type { ptr, %"class.icu_77::PtnSkeleton" }
%"class.icu_77::PtnSkeleton" = type <{ ptr, [16 x i32], %"class.icu_77::SkeletonFields", %"class.icu_77::SkeletonFields", i8, [7 x i8] }>
%"class.icu_77::SkeletonFields" = type { [16 x i8], [16 x i8] }
%"class.icu_77::FormatParser" = type { ptr, [50 x %"class.icu_77::UnicodeString"], i32, i32 }

@_ZN6icu_7715DateTimeMatcherC1Ev = unnamed_addr alias void (ptr), ptr @_ZN6icu_7715DateTimeMatcherC2Ev
@_ZN6icu_7715DateTimeMatcherD1Ev = unnamed_addr alias void (ptr), ptr @_ZN6icu_7715DateTimeMatcherD2Ev
@_ZN6icu_7712FormatParserC1Ev = unnamed_addr alias void (ptr), ptr @_ZN6icu_7712FormatParserC2Ev
@_ZN6icu_7712FormatParserD1Ev = unnamed_addr alias void (ptr), ptr @_ZN6icu_7712FormatParserD2Ev
@_ZN6icu_7711PtnSkeletonC1Ev = unnamed_addr alias void (ptr), ptr @_ZN6icu_7711PtnSkeletonC2Ev
@_ZN6icu_7711PtnSkeletonD1Ev = unnamed_addr alias void (ptr), ptr @_ZN6icu_7711PtnSkeletonD2Ev

; Function Attrs: mustprogress uwtable
define void @_ZN6icu_7724DateTimePatternGenerator21staticGetBaseSkeletonERKNS_13UnicodeStringER10UErrorCode(ptr dead_on_unwind noalias writable sret(%"class.icu_77::UnicodeString") align 8 %0, ptr noundef nonnull align 8 dereferenceable(64) %1, ptr noundef nonnull align 4 dereferenceable(4) %2) #1 align 2 personality ptr @__gxx_personality_v0 {
  %4 = alloca ptr, align 8
  %5 = alloca ptr, align 8
  %6 = alloca ptr, align 8
  %7 = alloca %"class.icu_77::FormatParser", align 8
  %8 = alloca %"class.icu_77::DateTimeMatcher", align 8
  %9 = alloca ptr, align 8
  %10 = alloca i32, align 4
  %11 = alloca %"class.icu_77::PtnSkeleton", align 8
  store ptr %0, ptr %4, align 8
  store ptr %1, ptr %5, align 8, !tbaa !60
  store ptr %2, ptr %6, align 8, !tbaa !22
  call void @llvm.lifetime.start.p0(i64 3216, ptr %7) #13
  call void @_ZN6icu_7712FormatParserC1Ev(ptr noundef nonnull align 8 dereferenceable(3216) %7)
  call void @llvm.lifetime.start.p0(i64 152, ptr %8) #13
  invoke void @_ZN6icu_7715DateTimeMatcherC1Ev(ptr noundef nonnull align 8 dereferenceable(152) %8)
          to label %12 unwind label %17

12:                                               ; preds = %3
  call void @llvm.lifetime.start.p0(i64 144, ptr %11) #13
  invoke void @_ZN6icu_7711PtnSkeletonC1Ev(ptr noundef nonnull align 8 dereferenceable(137) %11)
          to label %13 unwind label %21

13:                                               ; preds = %12
  %14 = load ptr, ptr %5, align 8, !tbaa !60
  invoke void @_ZN6icu_7715DateTimeMatcher3setERKNS_13UnicodeStringEPNS_12FormatParserERNS_11PtnSkeletonE(ptr noundef nonnull align 8 dereferenceable(152) %8, ptr noundef nonnull align 8 dereferenceable(64) %14, ptr noundef %7, ptr noundef nonnull align 8 dereferenceable(137) %11)
          to label %15 unwind label %25

15:                                               ; preds = %13
  invoke void @_ZNK6icu_7711PtnSkeleton15getBaseSkeletonEv(ptr dead_on_unwind writable sret(%"class.icu_77::UnicodeString") align 8 %0, ptr noundef nonnull align 8 dereferenceable(137) %11)
          to label %16 unwind label %25

16:                                               ; preds = %15
  call void @_ZN6icu_7711PtnSkeletonD1Ev(ptr noundef nonnull align 8 dereferenceable(137) %11) #13
  call void @llvm.lifetime.end.p0(i64 144, ptr %11) #13
  call void @_ZN6icu_7715DateTimeMatcherD1Ev(ptr noundef nonnull align 8 dereferenceable(152) %8) #13
  call void @llvm.lifetime.end.p0(i64 152, ptr %8) #13
  call void @_ZN6icu_7712FormatParserD1Ev(ptr noundef nonnull align 8 dereferenceable(3216) %7) #13
  call void @llvm.lifetime.end.p0(i64 3216, ptr %7) #13
  ret void

17:                                               ; preds = %3
  %18 = landingpad { ptr, i32 }
          cleanup
  %19 = extractvalue { ptr, i32 } %18, 0
  store ptr %19, ptr %9, align 8
  %20 = extractvalue { ptr, i32 } %18, 1
  store i32 %20, ptr %10, align 4
  br label %30

21:                                               ; preds = %12
  %22 = landingpad { ptr, i32 }
          cleanup
  %23 = extractvalue { ptr, i32 } %22, 0
  store ptr %23, ptr %9, align 8
  %24 = extractvalue { ptr, i32 } %22, 1
  store i32 %24, ptr %10, align 4
  br label %29

25:                                               ; preds = %15, %13
  %26 = landingpad { ptr, i32 }
          cleanup
  %27 = extractvalue { ptr, i32 } %26, 0
  store ptr %27, ptr %9, align 8
  %28 = extractvalue { ptr, i32 } %26, 1
  store i32 %28, ptr %10, align 4
  call void @_ZN6icu_7711PtnSkeletonD1Ev(ptr noundef nonnull align 8 dereferenceable(137) %11) #13
  br label %29

29:                                               ; preds = %25, %21
  call void @llvm.lifetime.end.p0(i64 144, ptr %11) #13
  call void @_ZN6icu_7715DateTimeMatcherD1Ev(ptr noundef nonnull align 8 dereferenceable(152) %8) #13
  br label %30

30:                                               ; preds = %29, %17
  call void @llvm.lifetime.end.p0(i64 152, ptr %8) #13
  call void @_ZN6icu_7712FormatParserD1Ev(ptr noundef nonnull align 8 dereferenceable(3216) %7) #13
  call void @llvm.lifetime.end.p0(i64 3216, ptr %7) #13
  br label %31

31:                                               ; preds = %30
  %32 = load ptr, ptr %9, align 8
  %33 = load i32, ptr %10, align 4
  %34 = insertvalue { ptr, i32 } poison, ptr %32, 0
  %35 = insertvalue { ptr, i32 } %34, i32 %33, 1
  resume { ptr, i32 } %35
}