; Function Attrs: mustprogress uwtable
define void @_ZN6icu_7724DateTimePatternGenerator21staticGetBaseSkeletonERKNS_13UnicodeStringER10UErrorCode(ptr dead_on_unwind noalias writable sret(%"class.icu_77::UnicodeString") align 8 %0, ptr noundef nonnull align 8 dereferenceable(64) %1, ptr noundef nonnull readnone align 4 captures(none) dereferenceable(4) %2) local_unnamed_addr #1 align 2 personality ptr @__gxx_personality_v0 {
  %4 = alloca %"class.icu_77::FormatParser", align 8
  %5 = alloca %"class.icu_77::DateTimeMatcher", align 8
  %6 = alloca %"class.icu_77::PtnSkeleton", align 8
  call void @llvm.lifetime.start.p0(i64 3216, ptr nonnull %4) #35
  call void @_ZN6icu_7712FormatParserC1Ev(ptr noundef nonnull align 8 dereferenceable(3216) %4)
  call void @llvm.lifetime.start.p0(i64 152, ptr nonnull %5) #35
  invoke void @_ZN6icu_7715DateTimeMatcherC1Ev(ptr noundef nonnull align 8 dereferenceable(152) %5)
          to label %7 unwind label %11

7:                                                ; preds = %3
  call void @llvm.lifetime.start.p0(i64 144, ptr nonnull %6) #35
  invoke void @_ZN6icu_7711PtnSkeletonC1Ev(ptr noundef nonnull align 8 dereferenceable(137) %6)
          to label %8 unwind label %13

8:                                                ; preds = %7
  invoke void @_ZN6icu_7715DateTimeMatcher3setERKNS_13UnicodeStringEPNS_12FormatParserERNS_11PtnSkeletonE(ptr noundef nonnull align 8 dereferenceable(152) %5, ptr noundef nonnull align 8 dereferenceable(64) %1, ptr noundef nonnull %4, ptr noundef nonnull align 8 dereferenceable(137) %6)
          to label %9 unwind label %15

9:                                                ; preds = %8
  invoke void @_ZNK6icu_7711PtnSkeleton15getBaseSkeletonEv(ptr dead_on_unwind writable sret(%"class.icu_77::UnicodeString") align 8 %0, ptr noundef nonnull align 8 dereferenceable(137) %6)
          to label %10 unwind label %15

10:                                               ; preds = %9
  call void @_ZN6icu_7711PtnSkeletonD1Ev(ptr noundef nonnull align 8 dereferenceable(137) %6) #35
  call void @llvm.lifetime.end.p0(i64 144, ptr nonnull %6) #35
  call void @_ZN6icu_7715DateTimeMatcherD1Ev(ptr noundef nonnull align 8 dereferenceable(152) %5) #35
  call void @llvm.lifetime.end.p0(i64 152, ptr nonnull %5) #35
  call void @_ZN6icu_7712FormatParserD1Ev(ptr noundef nonnull align 8 dereferenceable(3216) %4) #35
  call void @llvm.lifetime.end.p0(i64 3216, ptr nonnull %4) #35
  ret void

11:                                               ; preds = %3
  %12 = landingpad { ptr, i32 }
          cleanup
  br label %18

13:                                               ; preds = %7
  %14 = landingpad { ptr, i32 }
          cleanup
  br label %17

15:                                               ; preds = %9, %8
  %16 = landingpad { ptr, i32 }
          cleanup
  call void @_ZN6icu_7711PtnSkeletonD1Ev(ptr noundef nonnull align 8 dereferenceable(137) %6) #35
  br label %17

17:                                               ; preds = %15, %13
  %.pn = phi { ptr, i32 } [ %16, %15 ], [ %14, %13 ]
  call void @llvm.lifetime.end.p0(i64 144, ptr nonnull %6) #35
  call void @_ZN6icu_7715DateTimeMatcherD1Ev(ptr noundef nonnull align 8 dereferenceable(152) %5) #35
  br label %18

18:                                               ; preds = %17, %11
  %.pn.pn = phi { ptr, i32 } [ %.pn, %17 ], [ %12, %11 ]
  call void @llvm.lifetime.end.p0(i64 152, ptr nonnull %5) #35
  call void @_ZN6icu_7712FormatParserD1Ev(ptr noundef nonnull align 8 dereferenceable(3216) %4) #35
  call void @llvm.lifetime.end.p0(i64 3216, ptr nonnull %4) #35
  resume { ptr, i32 } %.pn.pn
}